******************************************************************************
                  TI ARM Linker PC v20.2.4                     
******************************************************************************
>> Linked Sat Jun  5 18:13:09 2021

OUTPUT FILE NAME:   <Camera_test.out>
ENTRY POINT SYMBOL: "_c_int00_noargs"  address: 000274c1


MEMORY CONFIGURATION

         name            origin    length      used     unused   attr    fill
----------------------  --------  ---------  --------  --------  ----  --------
  FLASH                 00000000   00100000  00027926  000d86da  R  X
  SRAM                  20000000   00040000  00000379  0003fc87  RW X


SEGMENT ALLOCATION MAP

run origin  load origin   length   init length attrs members
----------  ----------- ---------- ----------- ----- -------
00000000    00000000    00000200   00000200    r--
  00000000    00000000    00000200   00000200    r-- .intvecs
00000000    00000000    0004b434   00000000    rw-
  00000000    00000000    0004b434   00000000    rw- .bss
00000200    00000200    00027728   00027728    r-x
  00000200    00000200    00025ccc   00025ccc    r-- .const
  00025ecc    00025ecc    00001a1a   00001a1a    r-x .text
  000278e8    000278e8    00000040   00000040    r-- .cinit
20000000    20000000    0000037d   00000000    rw-
  20000000    20000000    0000026c   00000000    rw- .vtable
  20000270    20000270    00000100   00000000    rw- .stack
  20000370    20000370    0000000d   00000000    rw- .data


SECTION ALLOCATION MAP

 output                                  attributes/
section   page    origin      length       input sections
--------  ----  ----------  ----------   ----------------
.intvecs   0    00000000    00000200     
                  00000000    00000200     startup_ccs.obj (.intvecs)

.bss       0    00000000    0004b434     FAILED TO ALLOCATE
.const     0    00000200    00025ccc     
                  00000200    00025800     Camera_main.obj (.const:.string:bmpdata)
                  00025a00    000001b0     driverlib.lib : sysctl.obj (.const:g_pppui32XTALtoVCO)
                  00025bb0    000000d8                   : gpio.obj (.const:g_ppui32GPIOIntMapSnowflake)
                  00025c88    000000c0                   : gpio.obj (.const:g_ppui32GPIOIntMapBlizzard)
                  00025d48    00000090                   : gpio.obj (.const:g_pui32GPIOBaseAddrs)
                  00025dd8    0000006c                   : sysctl.obj (.const:g_pui32Xtals)
                  00025e44    00000030                   : sysctl.obj (.const:g_sXTALtoMEMTIM)
                  00025e74    00000024     ov7725.obj (.const:config)
                  00025e98    00000014     driverlib.lib : interrupt.obj (.const:g_pui32EnRegs)
                  00025eac    0000000c     Camera_main.obj (.const:g_ui32UARTBase)
                  00025eb8    0000000c     Camera_main.obj (.const:g_ui32UARTPeriph)
                  00025ec4    00000008     driverlib.lib : sysctl.obj (.const:g_pui32VCOFrequencies)

.text      0    00025ecc    00001a1a     
                  00025ecc    000002a4     Camera_main.obj (.text:dbg)
                  00026170    00000200     driverlib.lib : sysctl.obj (.text:SysCtlClockFreqSet)
                  00026370    000001bc     dbg.obj (.text:dbg_printf)
                  0002652c    0000016c     driverlib.lib : gpio.obj (.text:GPIOPadConfigSet)
                  00026698    00000118                   : sysctl.obj (.text:SysCtlClockGet)
                  000267b0    000000d0     Camera_main.obj (.text:gpio_init)
                  00026880    000000b8     Camera_main.obj (.text:main)
                  00026938    0000009c     rtsv7M4_T_le_v4SPD16_eabi.lib : memcpy_t2.asm.obj (.text)
                  000269d4    00000098     ov7725.obj (.text:ov7725_detect)
                  00026a6c    00000090     sccb.obj (.text:SCCB0_Write_Byte)
                  00026afc    00000090     ov7725.obj (.text:ov7725_init)
                  00026b8c    00000084     Camera_main.obj (.text:pwm_init)
                  00026c10    0000007a     rtsv7M4_T_le_v4SPD16_eabi.lib : memset_t2.asm.obj (.text)
                  00026c8a    00000002     startup_ccs.obj (.text:FaultISR)
                  00026c8c    00000078     hw.obj (.text:dma_init)
                  00026d04    00000070     ov7725.obj (.text:vsync_handler)
                  00026d74    00000068     driverlib.lib : interrupt.obj (.text:IntEnable)
                  00026ddc    00000068     rtsv7M4_T_le_v4SPD16_eabi.lib : copy_decompress_lzss.c.obj (.text:decompress:lzss:__TI_decompress_lzss)
                  00026e44    00000064     RS_232.obj (.text:UART0_init)
                  00026ea8    00000060     Camera_main.obj (.text:UARTStdioConfig)
                  00026f08    0000005c     sccb.obj (.text:SCCB0_Read_Byte)
                  00026f64    00000058     driverlib.lib : gpio.obj (.text:GPIOIntTypeSet)
                  00026fbc    00000050     sccb.obj (.text:SCCB0_Init)
                  0002700c    00000050     RS_232.obj (.text:UART2_init)
                  0002705c    0000004c     driverlib.lib : gpio.obj (.text:GPIOPinConfigure)
                  000270a8    0000004c     sccb.obj (.text:SCCB0_No_Ack)
                  000270f4    0000004c     sccb.obj (.text:SCCB0_Read_Reg)
                  00027140    0000004c     ov7725.obj (.text:href_handler)
                  0002718c    00000048     driverlib.lib : sysctl.obj (.text:_SysCtlFrequencyGet)
                  000271d4    00000048                   : udma.obj (.text:uDMAChannelAttributeDisable)
                  0002721c    00000046                   : uart.obj (.text:UARTConfigSetExpClk)
                  00027262    00000002     startup_ccs.obj (.text:IntDefaultHandler)
                  00027264    00000044     driverlib.lib : gpio.obj (.text:_GPIOIntNumberGet)
                  000272a8    00000044     rtsv7M4_T_le_v4SPD16_eabi.lib : autoinit.c.obj (.text:__TI_auto_init_nobinit_nopinit:__TI_auto_init_nobinit_nopinit)
                  000272ec    00000040     sccb.obj (.text:SCCB0_Start)
                  0002732c    00000040     sccb.obj (.text:SCCB0_Write_Reg)
                  0002736c    00000040     hw.obj (.text:hw_dma_set_img)
                  000273ac    0000003c     sccb.obj (.text:SCCB0_Stop)
                  000273e8    00000038     dbg.obj (.text:divOut)
                  00027420    00000038     Camera_main.obj (.text:isr_init)
                  00027458    00000034     driverlib.lib : interrupt.obj (.text:IntRegister)
                  0002748c    00000034                   : sysctl.obj (.text:SysCtlPeripheralEnable)
                  000274c0    00000034     rtsv7M4_T_le_v4SPD16_eabi.lib : boot_cortex_m.c.obj (.text:_c_int00_noargs:_c_int00_noargs)
                  000274f4    00000030     dbg.obj (.text:outDgt)
                  00027524    0000002c     sccb.obj (.text:Delay_us)
                  00027550    0000002c     driverlib.lib : gpio.obj (.text:GPIODirModeSet)
                  0002757c    0000002c     ov7725.obj (.text:ov7725_setup_frame_buf)
                  000275a8    0000002c     ov7725.obj (.text:set_framesize)
                  000275d4    00000022     driverlib.lib : pwm.obj (.text:PWMGenConfigure)
                  000275f6    00000002     startup_ccs.obj (.text:NmiSR)
                  000275f8    00000020     driverlib.lib : uart.obj (.text:UARTDisable)
                  00027618    00000020                   : sysctl.obj (.text:_SysCtlMemTimingGet)
                  00027638    00000020     ov7725.obj (.text:set_gain_ctrl)
                  00027658    00000020     ov7725.obj (.text:set_pixformat)
                  00027678    0000001e     driverlib.lib : pwm.obj (.text:PWMPulseWidthSet)
                  00027696    0000001e     RS_232.obj (.text:rs232_init)
                  000276b4    0000001e     ov7725.obj (.text:set_vflip)
                  000276d2    00000002     --HOLE-- [fill = 0]
                  000276d4    0000001c     Camera_main.obj (.text:clk_init)
                  000276f0    0000001c     ov7725.obj (.text:ov7725_is_image_acquired)
                  0002770c    0000001a     driverlib.lib : gpio.obj (.text:GPIOPinTypeGPIOOutput)
                  00027726    00000018                   : gpio.obj (.text:GPIOIntRegister)
                  0002773e    00000002     --HOLE-- [fill = 0]
                  00027740    00000018     ov7725.obj (.text:ov7725_pwr_dn)
                  00027758    00000018     ov7725.obj (.text:ov7725_reset)
                  00027770    00000018     ov7725.obj (.text:set_exposure_ctrl)
                  00027788    00000018     ov7725.obj (.text:set_hmirror)
                  000277a0    00000018     dbg.obj (.text:uart_putc)
                  000277b8    00000016     driverlib.lib : gpio.obj (.text:GPIOPinTypeGPIOInput)
                  000277ce    00000016                   : gpio.obj (.text:GPIOPinTypePWM)
                  000277e4    00000016                   : gpio.obj (.text:GPIOPinTypeUART)
                  000277fa    00000002     --HOLE-- [fill = 0]
                  000277fc    00000014                   : pwm.obj (.text:PWMClockSet)
                  00027810    00000014                   : uart.obj (.text:UARTEnable)
                  00027824    00000012                   : pwm.obj (.text:PWMGenPeriodGet)
                  00027836    00000012                   : pwm.obj (.text:PWMOutputState)
                  00027848    00000012     ov7725.obj (.text:set_whitebal)
                  0002785a    00000010     driverlib.lib : pwm.obj (.text:PWMGenPeriodSet)
                  0002786a    00000002     --HOLE-- [fill = 0]
                  0002786c    00000010     dbg.obj (.text:out)
                  0002787c    0000000e     rtsv7M4_T_le_v4SPD16_eabi.lib : copy_decompress_none.c.obj (.text:decompress:none:__TI_decompress_none)
                  0002788a    0000000c     driverlib.lib : gpio.obj (.text:GPIODMATriggerEnable)
                  00027896    0000000c                   : gpio.obj (.text:GPIOIntEnable)
                  000278a2    0000000c                   : pwm.obj (.text:PWMGenEnable)
                  000278ae    0000000c     rtsv7M4_T_le_v4SPD16_eabi.lib : copy_zero_init.c.obj (.text:decompress:ZI:__TI_zero_init)
                  000278ba    00000006     driverlib.lib : gpio.obj (.text:GPIOIntClear)
                  000278c0    00000006                   : gpio.obj (.text:GPIOPinRead)
                  000278c6    00000006                   : gpio.obj (.text:GPIOPinWrite)
                  000278cc    00000006     startup_ccs.obj (.text:ResetISR)
                  000278d2    00000006     driverlib.lib : sysctl.obj (.text:SysCtlDelay)
                  000278d8    00000006                   : uart.obj (.text:UARTClockSourceSet)
                  000278de    00000004     rtsv7M4_T_le_v4SPD16_eabi.lib : pre_init.c.obj (.text:_system_pre_init)
                  000278e2    00000004                                   : exit.c.obj (.text:abort:abort)

.cinit     0    000278e8    00000040     
                  000278e8    0000000c     (__TI_handler_table)
                  000278f4    00000004     --HOLE-- [fill = 0]
                  000278f8    00000008     (.cinit..bss.load) [load image, compression = zero_init]
                  00027900    00000008     (.cinit..vtable.load) [load image, compression = zero_init]
                  00027908    00000007     (.cinit..data.load) [load image, compression = lzss]
                  0002790f    00000001     --HOLE-- [fill = 0]
                  00027910    00000018     (__TI_cinit_table)

.init_array 
*          0    00000000    00000000     UNINITIALIZED

.vtable    0    20000000    0000026c     UNINITIALIZED
                  20000000    0000026c     driverlib.lib : interrupt.obj (.vtable)

.data      0    20000370    0000000d     UNINITIALIZED
                  20000370    00000008     ov7725.obj (.data)
                  20000378    00000005     Camera_main.obj (.data)

.stack     0    20000270    00000100     UNINITIALIZED
                  20000270    00000004     rtsv7M4_T_le_v4SPD16_eabi.lib : boot_cortex_m.c.obj (.stack)
                  20000274    000000fc     --HOLE--

__llvm_prf_cnts 
*          0    20000000    00000000     UNINITIALIZED

.binit     0    00000000    00000000     

MODULE SUMMARY

       Module                       code   ro data   rw data
       ------                       ----   -------   -------
    .\
       Camera_main.obj              1380   153624    5      
       startup_ccs.obj              12     512       0      
    +--+----------------------------+------+---------+---------+
       Total:                       1392   154136    5      
                                                            
    .\src\
       ov7725.obj                   808    36        8      
       sccb.obj                     700    0         0      
       dbg.obj                      588    0         0      
       RS_232.obj                   210    0         0      
       hw.obj                       184    0         0      
    +--+----------------------------+------+---------+---------+
       Total:                       2490   36        8      
                                                            
    C:/ti/TivaWare_C_Series-2.2.0.295/driverlib/ccs/Debug/driverlib.lib
       sysctl.obj                   954    596       0      
       gpio.obj                     798    552       0      
       interrupt.obj                156    20        620    
       pwm.obj                      148    0         0      
       uart.obj                     128    0         0      
       udma.obj                     72     0         0      
    +--+----------------------------+------+---------+---------+
       Total:                       2256   1168      620    
                                                            
    C:\ti\ccs1031\ccs\tools\compiler\ti-cgt-arm_20.2.4.LTS\lib\rtsv7M4_T_le_v4SPD16_eabi.lib
       memcpy_t2.asm.obj            156    0         0      
       memset_t2.asm.obj            122    0         0      
       copy_decompress_lzss.c.obj   104    0         0      
       autoinit.c.obj               68     0         0      
       boot_cortex_m.c.obj          52     0         0      
       copy_decompress_none.c.obj   14     0         0      
       copy_zero_init.c.obj         12     0         0      
       exit.c.obj                   4      0         0      
       pre_init.c.obj               4      0         0      
    +--+----------------------------+------+---------+---------+
       Total:                       536    0         0      
                                                            
       Stack:                       0      0         256    
       Linker Generated:            0      59        0      
    +--+----------------------------+------+---------+---------+
       Grand Total:                 6674   155399    889    


LINKER GENERATED COPY TABLES

__TI_cinit_table @ 00027910 records: 3, size/record: 8, table size: 24
	.bss: load addr=000278f8, load size=00000008 bytes, run addr=00000000, run size=0004b434 bytes, compression=zero_init
	.vtable: load addr=00027900, load size=00000008 bytes, run addr=20000000, run size=0000026c bytes, compression=zero_init
	.data: load addr=00027908, load size=00000007 bytes, run addr=20000370, run size=0000000d bytes, compression=lzss


LINKER GENERATED HANDLER TABLE

__TI_handler_table @ 000278e8 records: 3, size/record: 4, table size: 12
	index: 0, handler: __TI_zero_init
	index: 1, handler: __TI_decompress_lzss
	index: 2, handler: __TI_decompress_none


GLOBAL SYMBOLS: SORTED ALPHABETICALLY BY Name 

address   name                          
-------   ----                          
000278e3  C$$EXIT                       
00027525  Delay_us                      
0002788b  GPIODMATriggerEnable          
00027551  GPIODirModeSet                
000278bb  GPIOIntClear                  
00027897  GPIOIntEnable                 
00027727  GPIOIntRegister               
00026f65  GPIOIntTypeSet                
0002652d  GPIOPadConfigSet              
0002705d  GPIOPinConfigure              
000278c1  GPIOPinRead                   
000277b9  GPIOPinTypeGPIOInput          
0002770d  GPIOPinTypeGPIOOutput         
000277cf  GPIOPinTypePWM                
000277e5  GPIOPinTypeUART               
000278c7  GPIOPinWrite                  
00026d75  IntEnable                     
00027459  IntRegister                   
000277fd  PWMClockSet                   
000275d5  PWMGenConfigure               
000278a3  PWMGenEnable                  
00027825  PWMGenPeriodGet               
0002785b  PWMGenPeriodSet               
00027837  PWMOutputState                
00027679  PWMPulseWidthSet              
000278cd  ResetISR                      
00026fbd  SCCB0_Init                    
000270a9  SCCB0_No_Ack                  
00026f09  SCCB0_Read_Byte               
000270f5  SCCB0_Read_Reg                
000272ed  SCCB0_Start                   
000273ad  SCCB0_Stop                    
00026a6d  SCCB0_Write_Byte              
0002732d  SCCB0_Write_Reg               
00026171  SysCtlClockFreqSet            
00026699  SysCtlClockGet                
000278d3  SysCtlDelay                   
0002748d  SysCtlPeripheralEnable        
00026e45  UART0_init                    
0002700d  UART2_init                    
000278d9  UARTClockSourceSet            
0002721d  UARTConfigSetExpClk           
000275f9  UARTDisable                   
00027811  UARTEnable                    
00026ea9  UARTStdioConfig               
20000370  __STACK_END                   
00000100  __STACK_SIZE                  
20000370  __STACK_TOP                   
00027910  __TI_CINIT_Base               
00027928  __TI_CINIT_Limit              
000278e8  __TI_Handler_Table_Base       
000278f4  __TI_Handler_Table_Limit      
000272a9  __TI_auto_init_nobinit_nopinit
00026ddd  __TI_decompress_lzss          
0002787d  __TI_decompress_none          
ffffffff  __TI_pprof_out_hndl           
ffffffff  __TI_prof_data_size           
ffffffff  __TI_prof_data_start          
00000000  __TI_static_base__            
000278af  __TI_zero_init                
00026c11  __aeabi_memclr                
00026c11  __aeabi_memclr4               
00026c11  __aeabi_memclr8               
00026939  __aeabi_memcpy                
00026939  __aeabi_memcpy4               
00026939  __aeabi_memcpy8               
00026c13  __aeabi_memset                
00026c13  __aeabi_memset4               
00026c13  __aeabi_memset8               
ffffffff  __binit__                     
ffffffff  __c_args__                    
UNDEFED   __mpu_init                    
20000270  __stack                       
20000000  __start___llvm_prf_cnts       
20000000  __stop___llvm_prf_cnts        
000274c1  _c_int00_noargs               
UNDEFED   _system_post_cinit            
000278df  _system_pre_init              
000278e3  abort                         
ffffffff  binit                         
0004b422  blue                          
00000200  bmpdata                       
000276d5  clk_init                      
00025e74  config                        
00025ecd  dbg                           
00026371  dbg_printf                    
00026c8d  dma_init                      
20000000  g_pfnRAMVectors               
00000000  g_pfnVectors                  
000267b1  gpio_init                     
0004b428  green                         
00027141  href_handler                  
0002736d  hw_dma_set_img                
00027421  isr_init                      
00026881  main                          
00026939  memcpy                        
00026c19  memset                        
000269d5  ov7725_detect                 
00026afd  ov7725_init                   
000276f1  ov7725_is_image_acquired      
00027741  ov7725_pwr_dn                 
00027759  ov7725_reset                  
0002757d  ov7725_setup_frame_buf        
0004b42a  pixel                         
00026b8d  pwm_init                      
00000000  qvga_frame                    
0004b42c  red                           
00027697  rs232_init                    
000271d5  uDMAChannelAttributeDisable   
0004b42e  ui16bw                        
00025800  ui16gray_buff                 
0004b430  ui8blue                       
0004b431  ui8grayscale                  
0004b432  ui8green                      
0004b433  ui8red                        
00026d05  vsync_handler                 


GLOBAL SYMBOLS: SORTED BY Symbol Address 

address   name                          
-------   ----                          
00000000  __TI_static_base__            
00000000  g_pfnVectors                  
00000000  qvga_frame                    
00000100  __STACK_SIZE                  
00000200  bmpdata                       
00025800  ui16gray_buff                 
00025e74  config                        
00025ecd  dbg                           
00026171  SysCtlClockFreqSet            
00026371  dbg_printf                    
0002652d  GPIOPadConfigSet              
00026699  SysCtlClockGet                
000267b1  gpio_init                     
00026881  main                          
00026939  __aeabi_memcpy                
00026939  __aeabi_memcpy4               
00026939  __aeabi_memcpy8               
00026939  memcpy                        
000269d5  ov7725_detect                 
00026a6d  SCCB0_Write_Byte              
00026afd  ov7725_init                   
00026b8d  pwm_init                      
00026c11  __aeabi_memclr                
00026c11  __aeabi_memclr4               
00026c11  __aeabi_memclr8               
00026c13  __aeabi_memset                
00026c13  __aeabi_memset4               
00026c13  __aeabi_memset8               
00026c19  memset                        
00026c8d  dma_init                      
00026d05  vsync_handler                 
00026d75  IntEnable                     
00026ddd  __TI_decompress_lzss          
00026e45  UART0_init                    
00026ea9  UARTStdioConfig               
00026f09  SCCB0_Read_Byte               
00026f65  GPIOIntTypeSet                
00026fbd  SCCB0_Init                    
0002700d  UART2_init                    
0002705d  GPIOPinConfigure              
000270a9  SCCB0_No_Ack                  
000270f5  SCCB0_Read_Reg                
00027141  href_handler                  
000271d5  uDMAChannelAttributeDisable   
0002721d  UARTConfigSetExpClk           
000272a9  __TI_auto_init_nobinit_nopinit
000272ed  SCCB0_Start                   
0002732d  SCCB0_Write_Reg               
0002736d  hw_dma_set_img                
000273ad  SCCB0_Stop                    
00027421  isr_init                      
00027459  IntRegister                   
0002748d  SysCtlPeripheralEnable        
000274c1  _c_int00_noargs               
00027525  Delay_us                      
00027551  GPIODirModeSet                
0002757d  ov7725_setup_frame_buf        
000275d5  PWMGenConfigure               
000275f9  UARTDisable                   
00027679  PWMPulseWidthSet              
00027697  rs232_init                    
000276d5  clk_init                      
000276f1  ov7725_is_image_acquired      
0002770d  GPIOPinTypeGPIOOutput         
00027727  GPIOIntRegister               
00027741  ov7725_pwr_dn                 
00027759  ov7725_reset                  
000277b9  GPIOPinTypeGPIOInput          
000277cf  GPIOPinTypePWM                
000277e5  GPIOPinTypeUART               
000277fd  PWMClockSet                   
00027811  UARTEnable                    
00027825  PWMGenPeriodGet               
00027837  PWMOutputState                
0002785b  PWMGenPeriodSet               
0002787d  __TI_decompress_none          
0002788b  GPIODMATriggerEnable          
00027897  GPIOIntEnable                 
000278a3  PWMGenEnable                  
000278af  __TI_zero_init                
000278bb  GPIOIntClear                  
000278c1  GPIOPinRead                   
000278c7  GPIOPinWrite                  
000278cd  ResetISR                      
000278d3  SysCtlDelay                   
000278d9  UARTClockSourceSet            
000278df  _system_pre_init              
000278e3  C$$EXIT                       
000278e3  abort                         
000278e8  __TI_Handler_Table_Base       
000278f4  __TI_Handler_Table_Limit      
00027910  __TI_CINIT_Base               
00027928  __TI_CINIT_Limit              
0004b422  blue                          
0004b428  green                         
0004b42a  pixel                         
0004b42c  red                           
0004b42e  ui16bw                        
0004b430  ui8blue                       
0004b431  ui8grayscale                  
0004b432  ui8green                      
0004b433  ui8red                        
20000000  __start___llvm_prf_cnts       
20000000  __stop___llvm_prf_cnts        
20000000  g_pfnRAMVectors               
20000270  __stack                       
20000370  __STACK_END                   
20000370  __STACK_TOP                   
ffffffff  __TI_pprof_out_hndl           
ffffffff  __TI_prof_data_size           
ffffffff  __TI_prof_data_start          
ffffffff  __binit__                     
ffffffff  __c_args__                    
ffffffff  binit                         
UNDEFED   __mpu_init                    
UNDEFED   _system_post_cinit            

[116 symbols]
